; Function Attrs: mustprogress uwtable
define dso_local void @_ZN13btGhostObjectC2Ev(ptr noundef nonnull align 8 dereferenceable(408) %this) unnamed_addr #0 align 2 personality ptr @__gxx_personality_v0 {
invoke.cont:
  tail call void @_ZN17btCollisionObjectC2Ev(ptr noundef nonnull align 8 dereferenceable(372) %this)
  store ptr getelementptr inbounds ({ [11 x ptr] }, ptr @_ZTV13btGhostObject, i64 0, i32 0, i64 2), ptr %this, align 8
  %m_ownsMemory.i.i = getelementptr inbounds i8, ptr %this, i64 400
  store i8 1, ptr %m_ownsMemory.i.i, align 8
  %m_data.i.i = getelementptr inbounds i8, ptr %this, i64 392
  store ptr null, ptr %m_data.i.i, align 8
  %m_size.i.i = getelementptr inbounds i8, ptr %this, i64 380
  store i32 0, ptr %m_size.i.i, align 4
  %m_capacity.i.i = getelementptr inbounds i8, ptr %this, i64 384
  store i32 0, ptr %m_capacity.i.i, align 8
  %m_internalType = getelementptr inbounds i8, ptr %this, i64 272
  store i32 4, ptr %m_internalType, align 8
  ret void
}